; Function Attrs: mustprogress uwtable
define hidden noundef i32 @_ZN15bv2int_rewriter5mk_gtEP4exprS1_R7obj_refIS0_11ast_managerE(ptr noundef nonnull readonly align 8 captures(none) dereferenceable(56) %0, ptr noundef %1, ptr noundef %2, ptr noundef nonnull align 8 captures(none) dereferenceable(16) %3) local_unnamed_addr #3 align 2 {
  %5 = load ptr, ptr %0, align 8, !tbaa !105
  %6 = getelementptr inbounds nuw i8, ptr %0, i64 40
  %7 = load ptr, ptr %6, align 8, !tbaa !109
  %8 = tail call noundef ptr @_ZN11ast_manager6mk_appEiiP4exprS1_(ptr noundef nonnull align 8 dereferenceable(976) %7, i32 noundef 5, i32 noundef 2, ptr noundef %1, ptr noundef %2)
  %9 = tail call noundef ptr @_ZN11ast_manager6mk_appEiiP4expr(ptr noundef nonnull align 8 dereferenceable(976) %5, i32 noundef 0, i32 noundef 8, ptr noundef %8)
  %.not.i = icmp eq ptr %9, null
  br i1 %.not.i, label %13, label %_ZN11ast_manager7inc_refEP3ast.exit.i

_ZN11ast_manager7inc_refEP3ast.exit.i:            ; preds = %4
  %10 = getelementptr inbounds nuw i8, ptr %9, i64 8
  %11 = load i32, ptr %10, align 4, !tbaa !87
  %12 = add i32 %11, 1
  store i32 %12, ptr %10, align 4, !tbaa !87
  br label %13

13:                                               ; preds = %_ZN11ast_manager7inc_refEP3ast.exit.i, %4
  %14 = load ptr, ptr %3, align 8, !tbaa !110
  %.not.i4.i = icmp eq ptr %14, null
  br i1 %.not.i4.i, label %_ZN7obj_refI4expr11ast_managerEaSEPS0_.exit, label %15

15:                                               ; preds = %13
  %16 = getelementptr inbounds nuw i8, ptr %3, i64 8
  %17 = load ptr, ptr %16, align 8, !tbaa !112
  %18 = getelementptr inbounds nuw i8, ptr %14, i64 8
  %19 = load i32, ptr %18, align 4, !tbaa !87
  %20 = add i32 %19, -1
  store i32 %20, ptr %18, align 4, !tbaa !87
  %21 = icmp eq i32 %20, 0
  br i1 %21, label %22, label %_ZN7obj_refI4expr11ast_managerEaSEPS0_.exit

22:                                               ; preds = %15
  tail call void @_ZN11ast_manager11delete_nodeEP3ast(ptr noundef nonnull align 8 dereferenceable(976) %17, ptr noundef nonnull %14)
  br label %_ZN7obj_refI4expr11ast_managerEaSEPS0_.exit

_ZN7obj_refI4expr11ast_managerEaSEPS0_.exit:      ; preds = %13, %15, %22
  store ptr %9, ptr %3, align 8, !tbaa !110
  ret i32 1
}